; Function Attrs: mustprogress nounwind uwtable
define internal void @_ZN12_GLOBAL__N_122X86InstructionSelectorD2Ev(ptr noundef nonnull align 8 dereferenceable(1400) initializes((0, 8)) %0) unnamed_addr #0 align 2 {
  store ptr getelementptr inbounds nuw inrange(-16, 96) (i8, ptr @_ZTVN12_GLOBAL__N_122X86InstructionSelectorE, i64 16), ptr %0, align 8
  %2 = getelementptr inbounds nuw i8, ptr %0, i64 368
  %3 = load i32, ptr %2, align 8
  %4 = and i32 %3, 1
  %.not.i.i.i = icmp eq i32 %4, 0
  br i1 %.not.i.i.i, label %5, label %_ZN4llvm20GIMatchTableExecutor10ExecInfoTyINS_6BitsetILj145EEEMN12_GLOBAL__N_122X86InstructionSelectorEKFSt8optionalINS_11SmallVectorISt8functionIFvRNS_19MachineInstrBuilderEEELj4EEEERNS_14MachineOperandEEMS5_KFvSA_RKNS_12MachineInstrEiEED2Ev.exit

5:                                                ; preds = %1
  %6 = getelementptr inbounds nuw i8, ptr %0, i64 376
  %7 = load ptr, ptr %6, align 8
  %8 = getelementptr inbounds nuw i8, ptr %0, i64 384
  %9 = load i32, ptr %8, align 8
  %10 = zext i32 %9 to i64
  %11 = shl nuw nsw i64 %10, 4
  tail call void @_ZN4llvm17deallocate_bufferEPvmm(ptr noundef %7, i64 noundef %11, i64 noundef 8) #19
  br label %_ZN4llvm20GIMatchTableExecutor10ExecInfoTyINS_6BitsetILj145EEEMN12_GLOBAL__N_122X86InstructionSelectorEKFSt8optionalINS_11SmallVectorISt8functionIFvRNS_19MachineInstrBuilderEEELj4EEEERNS_14MachineOperandEEMS5_KFvSA_RKNS_12MachineInstrEiEED2Ev.exit

_ZN4llvm20GIMatchTableExecutor10ExecInfoTyINS_6BitsetILj145EEEMN12_GLOBAL__N_122X86InstructionSelectorEKFSt8optionalINS_11SmallVectorISt8functionIFvRNS_19MachineInstrBuilderEEELj4EEEERNS_14MachineOperandEEMS5_KFvSA_RKNS_12MachineInstrEiEED2Ev.exit: ; preds = %1, %5
  %12 = getelementptr inbounds nuw i8, ptr %0, i64 168
  tail call void @_ZN4llvm20GIMatchTableExecutor12MatcherStateD2Ev(ptr noundef nonnull align 8 dereferenceable(168) %12) #19
  tail call void @_ZN4llvm19InstructionSelectorD2Ev(ptr noundef nonnull align 8 dereferenceable(80) %0) #19
  ret void
}